; ModuleID = 'source-C-CXX/26/619.cpp'
source_filename = "source-C-CXX/26/619.cpp"
target datalayout = "e-m:e-p270:32:32-p271:32:32-p272:64:64-i64:64-f80:128-n8:16:32:64-S128"
target triple = "x86_64-pc-linux-gnu"

%"class.std::ios_base::Init" = type { i8 }
%"class.std::basic_istream" = type { i32 (...)**, i64, %"class.std::basic_ios" }
%"class.std::basic_ios" = type { %"class.std::ios_base", %"class.std::basic_ostream"*, i8, i8, %"class.std::basic_streambuf"*, %"class.std::ctype"*, %"class.std::num_put"*, %"class.std::num_get"* }
%"class.std::ios_base" = type { i32 (...)**, i64, i64, i32, i32, i32, %"struct.std::ios_base::_Callback_list"*, %"struct.std::ios_base::_Words", [8 x %"struct.std::ios_base::_Words"], i32, %"struct.std::ios_base::_Words"*, %"class.std::locale" }
%"struct.std::ios_base::_Callback_list" = type { %"struct.std::ios_base::_Callback_list"*, void (i32, %"class.std::ios_base"*, i32)*, i32, i32 }
%"struct.std::ios_base::_Words" = type { i8*, i64 }
%"class.std::locale" = type { %"class.std::locale::_Impl"* }
%"class.std::locale::_Impl" = type { i32, %"class.std::locale::facet"**, i64, %"class.std::locale::facet"**, i8** }
%"class.std::locale::facet" = type <{ i32 (...)**, i32, [4 x i8] }>
%"class.std::basic_ostream" = type { i32 (...)**, %"class.std::basic_ios" }
%"class.std::basic_streambuf" = type { i32 (...)**, i8*, i8*, i8*, i8*, i8*, i8*, %"class.std::locale" }
%"class.std::ctype" = type <{ %"class.std::locale::facet.base", [4 x i8], %struct.__locale_struct*, i8, [7 x i8], i32*, i32*, i16*, i8, [256 x i8], [256 x i8], i8, [6 x i8] }>
%"class.std::locale::facet.base" = type <{ i32 (...)**, i32 }>
%struct.__locale_struct = type { [13 x %struct.__locale_data*], i16*, i32*, i32*, [13 x i8*] }
%struct.__locale_data = type opaque
%"class.std::num_put" = type { %"class.std::locale::facet.base", [4 x i8] }
%"class.std::num_get" = type { %"class.std::locale::facet.base", [4 x i8] }

@_ZStL8__ioinit = internal global %"class.std::ios_base::Init" zeroinitializer, align 1
@__dso_handle = external hidden global i8
@_ZSt3cin = external global %"class.std::basic_istream", align 8
@.str = private unnamed_addr constant [17 x i8] c"x1=%.5f;x2=%.5f\0A\00", align 1
@.str.1 = private unnamed_addr constant [12 x i8] c"x1=x2=%.5f\0A\00", align 1
@.str.2 = private unnamed_addr constant [29 x i8] c"x1=%.5f+%.5fi;x2=%.5f-%.5fi\0A\00", align 1
@llvm.global_ctors = appending global [1 x { i32, void ()*, i8* }] [{ i32, void ()*, i8* } { i32 65535, void ()* @_GLOBAL__sub_I_619.cpp, i8* null }]

declare void @_ZNSt8ios_base4InitC1Ev(%"class.std::ios_base::Init"* nonnull align 1 dereferenceable(1)) unnamed_addr #0

; Function Attrs: nounwind
declare void @_ZNSt8ios_base4InitD1Ev(%"class.std::ios_base::Init"* nonnull align 1 dereferenceable(1)) unnamed_addr #1

; Function Attrs: nofree nounwind
declare i32 @__cxa_atexit(void (i8*)*, i8*, i8*) local_unnamed_addr #2

; Function Attrs: mustprogress norecurse sspstrong uwtable
define dso_local i32 @main() local_unnamed_addr #3 {
  %1 = alloca i32, align 4
  %2 = alloca float, align 4
  %3 = alloca float, align 4
  %4 = alloca float, align 4
  %5 = bitcast i32* %1 to i8*
  call void @llvm.lifetime.start.p0i8(i64 4, i8* nonnull %5) #8
  %6 = bitcast float* %2 to i8*
  call void @llvm.lifetime.start.p0i8(i64 4, i8* nonnull %6) #8
  %7 = bitcast float* %3 to i8*
  call void @llvm.lifetime.start.p0i8(i64 4, i8* nonnull %7) #8
  %8 = bitcast float* %4 to i8*
  call void @llvm.lifetime.start.p0i8(i64 4, i8* nonnull %8) #8
  %9 = call nonnull align 8 dereferenceable(16) %"class.std::basic_istream"* @_ZNSirsERi(%"class.std::basic_istream"* nonnull align 8 dereferenceable(16) @_ZSt3cin, i32* nonnull align 4 dereferenceable(4) %1)
  %10 = load i32, i32* %1, align 4, !tbaa !5
  %11 = icmp sgt i32 %10, 0
  br i1 %11, label %12, label %78

12:                                               ; preds = %0, %74
  %13 = phi i32 [ %75, %74 ], [ 0, %0 ]
  %14 = call nonnull align 8 dereferenceable(16) %"class.std::basic_istream"* @_ZNSi10_M_extractIfEERSiRT_(%"class.std::basic_istream"* nonnull align 8 dereferenceable(16) @_ZSt3cin, float* nonnull align 4 dereferenceable(4) %2)
  %15 = call nonnull align 8 dereferenceable(16) %"class.std::basic_istream"* @_ZNSi10_M_extractIfEERSiRT_(%"class.std::basic_istream"* nonnull align 8 dereferenceable(16) %14, float* nonnull align 4 dereferenceable(4) %3)
  %16 = call nonnull align 8 dereferenceable(16) %"class.std::basic_istream"* @_ZNSi10_M_extractIfEERSiRT_(%"class.std::basic_istream"* nonnull align 8 dereferenceable(16) %15, float* nonnull align 4 dereferenceable(4) %4)
  %17 = load float, float* %3, align 4, !tbaa !9
  %18 = fcmp oeq float %17, 0.000000e+00
  br i1 %18, label %19, label %22

19:                                               ; preds = %12
  %20 = load float, float* %2, align 4, !tbaa !9
  %21 = fmul float %20, 2.000000e+00
  br label %27

22:                                               ; preds = %12
  %23 = fneg float %17
  %24 = load float, float* %2, align 4, !tbaa !9
  %25 = fmul float %24, 2.000000e+00
  %26 = fdiv float %23, %25
  br label %27

27:                                               ; preds = %19, %22
  %28 = phi float [ %21, %19 ], [ %25, %22 ]
  %29 = phi float [ %20, %19 ], [ %24, %22 ]
  %30 = phi float [ 0.000000e+00, %19 ], [ %26, %22 ]
  %31 = fmul float %17, %17
  %32 = fmul float %29, 4.000000e+00
  %33 = load float, float* %4, align 4, !tbaa !9
  %34 = fmul float %32, %33
  %35 = fsub float %31, %34
  %36 = fdiv float %35, %28
  %37 = fcmp ogt float %36, 0.000000e+00
  br i1 %37, label %38, label %58

38:                                               ; preds = %27
  %39 = call float @sqrtf(float %35) #8
  %40 = load float, float* %2, align 4, !tbaa !9
  %41 = fmul float %40, 2.000000e+00
  %42 = fdiv float %39, %41
  %43 = fadd float %30, %42
  %44 = load float, float* %3, align 4, !tbaa !9
  %45 = fmul float %44, %44
  %46 = fmul float %40, 4.000000e+00
  %47 = load float, float* %4, align 4, !tbaa !9
  %48 = fmul float %46, %47
  %49 = fsub float %45, %48
  %50 = call float @sqrtf(float %49) #8
  %51 = load float, float* %2, align 4, !tbaa !9
  %52 = fmul float %51, 2.000000e+00
  %53 = fdiv float %50, %52
  %54 = fsub float %30, %53
  %55 = fpext float %43 to double
  %56 = fpext float %54 to double
  %57 = call i32 (i8*, ...) @printf(i8* nonnull dereferenceable(1) getelementptr inbounds ([17 x i8], [17 x i8]* @.str, i64 0, i64 0), double %55, double %56)
  br label %74

58:                                               ; preds = %27
  %59 = fcmp oeq float %36, 0.000000e+00
  br i1 %59, label %60, label %63

60:                                               ; preds = %58
  %61 = fpext float %30 to double
  %62 = call i32 (i8*, ...) @printf(i8* nonnull dereferenceable(1) getelementptr inbounds ([12 x i8], [12 x i8]* @.str.1, i64 0, i64 0), double %61)
  br label %74

63:                                               ; preds = %58
  %64 = fneg float %35
  %65 = call float @sqrtf(float %64) #8
  %66 = load float, float* %2, align 4, !tbaa !9
  %67 = fmul float %66, 2.000000e+00
  %68 = fdiv float %65, %67
  %69 = fcmp oeq float %30, 0.000000e+00
  %70 = select i1 %69, float 0.000000e+00, float %30
  %71 = fpext float %70 to double
  %72 = fpext float %68 to double
  %73 = call i32 (i8*, ...) @printf(i8* nonnull dereferenceable(1) getelementptr inbounds ([29 x i8], [29 x i8]* @.str.2, i64 0, i64 0), double %71, double %72, double %71, double %72)
  br label %74

74:                                               ; preds = %38, %63, %60
  %75 = add nuw nsw i32 %13, 1
  %76 = load i32, i32* %1, align 4, !tbaa !5
  %77 = icmp slt i32 %75, %76
  br i1 %77, label %12, label %78, !llvm.loop !11

78:                                               ; preds = %74, %0
  call void @llvm.lifetime.end.p0i8(i64 4, i8* nonnull %8) #8
  call void @llvm.lifetime.end.p0i8(i64 4, i8* nonnull %7) #8
  call void @llvm.lifetime.end.p0i8(i64 4, i8* nonnull %6) #8
  call void @llvm.lifetime.end.p0i8(i64 4, i8* nonnull %5) #8
  ret i32 0
}

; Function Attrs: argmemonly mustprogress nofree nosync nounwind willreturn
declare void @llvm.lifetime.start.p0i8(i64 immarg, i8* nocapture) #4

declare nonnull align 8 dereferenceable(16) %"class.std::basic_istream"* @_ZNSirsERi(%"class.std::basic_istream"* nonnull align 8 dereferenceable(16), i32* nonnull align 4 dereferenceable(4)) local_unnamed_addr #0

; Function Attrs: nofree nounwind
declare noundef i32 @printf(i8* nocapture noundef readonly, ...) local_unnamed_addr #5

; Function Attrs: argmemonly mustprogress nofree nosync nounwind willreturn
declare void @llvm.lifetime.end.p0i8(i64 immarg, i8* nocapture) #4

; Function Attrs: mustprogress nofree nounwind willreturn
declare float @sqrtf(float) local_unnamed_addr #6

declare nonnull align 8 dereferenceable(16) %"class.std::basic_istream"* @_ZNSi10_M_extractIfEERSiRT_(%"class.std::basic_istream"* nonnull align 8 dereferenceable(16), float* nonnull align 4 dereferenceable(4)) local_unnamed_addr #0

; Function Attrs: sspstrong uwtable
define internal void @_GLOBAL__sub_I_619.cpp() #7 section ".text.startup" {
  tail call void @_ZNSt8ios_base4InitC1Ev(%"class.std::ios_base::Init"* nonnull align 1 dereferenceable(1) @_ZStL8__ioinit)
  %1 = tail call i32 @__cxa_atexit(void (i8*)* bitcast (void (%"class.std::ios_base::Init"*)* @_ZNSt8ios_base4InitD1Ev to void (i8*)*), i8* getelementptr inbounds (%"class.std::ios_base::Init", %"class.std::ios_base::Init"* @_ZStL8__ioinit, i64 0, i32 0), i8* nonnull @__dso_handle) #8
  ret void
}


!llvm.module.flags = !{!0, !1, !2, !3}
!llvm.ident = !{!4}

!0 = !{i32 1, !"wchar_size", i32 4}
!1 = !{i32 7, !"PIC Level", i32 2}
!2 = !{i32 7, !"PIE Level", i32 2}
!3 = !{i32 7, !"uwtable", i32 1}
!4 = !{!"clang version 13.0.0"}
!5 = !{!6, !6, i64 0}
!6 = !{!"int", !7, i64 0}
!7 = !{!"omnipotent char", !8, i64 0}
!8 = !{!"Simple C++ TBAA"}
!9 = !{!10, !10, i64 0}
!10 = !{!"float", !7, i64 0}
!11 = distinct !{!11, !12}
!12 = !{!"llvm.loop.mustprogress"}
